target datalayout = "e-m:e-p270:32:32-p271:32:32-p272:64:64-i64:64-i128:128-f80:128-n8:16:32:64-S128"
target triple = "x86_64-pc-linux-gnu"

%class.btVector3 = type { [4 x float] }
%class.btAlignedObjectArray.2 = type <{ [4 x i8], i32, i32, [4 x i8], ptr, i8, [7 x i8] }>
%class.btDeformableMultiBodyDynamicsWorld = type { %class.btMultiBodyDynamicsWorld, ptr, %class.btAlignedObjectArray.24, i32, i8, i8, i8, %struct.btSoftBodyWorldInfo, float, i32, i8, i8, i8, ptr, ptr }
%class.btMultiBodyDynamicsWorld = type { %class.btDiscreteDynamicsWorld.base, [4 x i8], %class.btAlignedObjectArray.14, %class.btAlignedObjectArray.16, %class.btAlignedObjectArray.16, ptr, ptr, %class.btAlignedObjectArray.18, %class.btAlignedObjectArray.2, %class.btAlignedObjectArray.18, %class.btAlignedObjectArray.2, %class.btAlignedObjectArray.20, %class.btAlignedObjectArray.2, %class.btAlignedObjectArray.22 }
%class.btDiscreteDynamicsWorld.base = type <{ %class.btDynamicsWorld, %class.btAlignedObjectArray.6, ptr, ptr, ptr, %class.btAlignedObjectArray.6, %class.btAlignedObjectArray.8, %class.btVector3, float, float, i8, i8, i8, i8, [4 x i8], %class.btAlignedObjectArray.10, i32, i8, [3 x i8], %class.btAlignedObjectArray.12, %class.btSpinMutex }>
%class.btDynamicsWorld = type { %class.btCollisionWorld.base, ptr, ptr, ptr, %struct.btContactSolverInfo }
%class.btCollisionWorld.base = type <{ ptr, %class.btAlignedObjectArray.4, ptr, %struct.btDispatcherInfo, ptr, ptr, i8 }>
%class.btAlignedObjectArray.4 = type <{ [4 x i8], i32, i32, [4 x i8], ptr, i8, [7 x i8] }>
%struct.btDispatcherInfo = type <{ float, i32, i32, float, i8, [7 x i8], ptr, i8, i8, i8, i8, float, i8, [3 x i8], float, i8, [7 x i8] }>
%struct.btContactSolverInfo = type { %struct.btContactSolverInfoData }
%struct.btContactSolverInfoData = type { float, float, float, float, float, i32, float, float, float, float, float, float, float, float, float, float, i32, float, float, float, float, float, i32, i32, i32, float, float, float, float, i8, i8, i32, i32 }
%class.btAlignedObjectArray.6 = type <{ [4 x i8], i32, i32, [4 x i8], ptr, i8, [7 x i8] }>
%class.btAlignedObjectArray.8 = type <{ [4 x i8], i32, i32, [4 x i8], ptr, i8, [7 x i8] }>
%class.btAlignedObjectArray.10 = type <{ [4 x i8], i32, i32, [4 x i8], ptr, i8, [7 x i8] }>
%class.btAlignedObjectArray.12 = type <{ [4 x i8], i32, i32, [4 x i8], ptr, i8, [7 x i8] }>
%class.btSpinMutex = type { i32 }
%class.btAlignedObjectArray.14 = type <{ [4 x i8], i32, i32, [4 x i8], ptr, i8, [7 x i8] }>
%class.btAlignedObjectArray.16 = type <{ [4 x i8], i32, i32, [4 x i8], ptr, i8, [7 x i8] }>
%class.btAlignedObjectArray.18 = type <{ [4 x i8], i32, i32, [4 x i8], ptr, i8, [7 x i8] }>
%class.btAlignedObjectArray.20 = type <{ [4 x i8], i32, i32, [4 x i8], ptr, i8, [7 x i8] }>
%class.btAlignedObjectArray.22 = type <{ [4 x i8], i32, i32, [4 x i8], ptr, i8, [7 x i8] }>
%class.btAlignedObjectArray.24 = type <{ [4 x i8], i32, i32, [4 x i8], ptr, i8, [7 x i8] }>
%struct.btSoftBodyWorldInfo = type { float, float, float, float, %class.btVector3, ptr, ptr, %class.btVector3, %struct.btSparseSdf }
%struct.btSparseSdf = type { %class.btAlignedObjectArray.26, float, float, i32, i32, i32, i32, i32, [4 x i8] }
%class.btAlignedObjectArray.26 = type <{ [4 x i8], i32, i32, [4 x i8], ptr, i8, [7 x i8] }>

; Function Attrs: mustprogress nounwind uwtable
define linkonce_odr dso_local noundef i32 @_ZNK34btDeformableMultiBodyDynamicsWorld12getDrawFlagsEv(ptr noundef nonnull align 8 dereferenceable(1056) %0) #1 comdat align 2 {
  %2 = alloca ptr, align 8
  store ptr %0, ptr %2, align 8, !tbaa !58
  %3 = load ptr, ptr %2, align 8
  %4 = getelementptr inbounds nuw %class.btDeformableMultiBodyDynamicsWorld, ptr %3, i32 0, i32 3
  %5 = load i32, ptr %4, align 8, !tbaa !126
  ret i32 %5
}

; Function Attrs: inlinehint mustprogress nounwind uwtable
define linkonce_odr dso_local noundef nonnull align 8 dereferenceable(8) ptr @_ZN20btAlignedObjectArrayIP10btSoftBodyEixEi(ptr noundef nonnull align 8 dereferenceable(25) %0, i32 noundef %1) #6 comdat align 2 {
  %3 = alloca ptr, align 8
  %4 = alloca i32, align 4
  store ptr %0, ptr %3, align 8, !tbaa !142
  store i32 %1, ptr %4, align 4, !tbaa !9
  %5 = load ptr, ptr %3, align 8
  %6 = getelementptr inbounds nuw %class.btAlignedObjectArray.24, ptr %5, i32 0, i32 4
  %7 = load ptr, ptr %6, align 8, !tbaa !319
  %8 = load i32, ptr %4, align 4, !tbaa !9
  %9 = sext i32 %8 to i64
  %10 = getelementptr inbounds ptr, ptr %7, i64 %9
  ret ptr %10
}

; Function Attrs: inlinehint mustprogress nounwind uwtable
define linkonce_odr dso_local noundef i32 @_ZNK20btAlignedObjectArrayIP10btSoftBodyE4sizeEv(ptr noundef nonnull align 8 dereferenceable(25) %0) #6 comdat align 2 {
  %2 = alloca ptr, align 8
  store ptr %0, ptr %2, align 8, !tbaa !142
  %3 = load ptr, ptr %2, align 8
  %4 = getelementptr inbounds nuw %class.btAlignedObjectArray.24, ptr %3, i32 0, i32 1
  %5 = load i32, ptr %4, align 4, !tbaa !318
  ret i32 %5
}

; Function Attrs: mustprogress nounwind uwtable
define linkonce_odr dso_local noundef nonnull align 8 dereferenceable(25) ptr @_ZN34btDeformableMultiBodyDynamicsWorld16getSoftBodyArrayEv(ptr noundef nonnull align 8 dereferenceable(1056) %0) #1 comdat align 2 {
  %2 = alloca ptr, align 8
  store ptr %0, ptr %2, align 8, !tbaa !58
  %3 = load ptr, ptr %2, align 8
  %4 = getelementptr inbounds nuw %class.btDeformableMultiBodyDynamicsWorld, ptr %3, i32 0, i32 2
  ret ptr %4
}

; Function Attrs: mustprogress uwtable
define dso_local void @_ZN34btDeformableMultiBodyDynamicsWorld14debugDrawWorldEv(ptr noundef nonnull align 8 dereferenceable(1056) %0) unnamed_addr #7 align 2 {
  %2 = alloca ptr, align 8
  %3 = alloca i32, align 4
  %4 = alloca ptr, align 8
  store ptr %0, ptr %2, align 8, !tbaa !58
  %5 = load ptr, ptr %2, align 8
  call void @_ZN24btMultiBodyDynamicsWorld14debugDrawWorldEv(ptr noundef nonnull align 8 dereferenceable(848) %5)
  call void @llvm.lifetime.start.p0(i64 4, ptr %3) #4
  store i32 0, ptr %3, align 4, !tbaa !9
  br label %6

6:                                                ; preds = %28, %1
  %7 = load i32, ptr %3, align 4, !tbaa !9
  %8 = call noundef nonnull align 8 dereferenceable(25) ptr @_ZN34btDeformableMultiBodyDynamicsWorld16getSoftBodyArrayEv(ptr noundef nonnull align 8 dereferenceable(1056) %5)
  %9 = call noundef i32 @_ZNK20btAlignedObjectArrayIP10btSoftBodyE4sizeEv(ptr noundef nonnull align 8 dereferenceable(25) %8)
  %10 = icmp slt i32 %7, %9
  br i1 %10, label %12, label %11

11:                                               ; preds = %6
  call void @llvm.lifetime.end.p0(i64 4, ptr %3) #4
  br label %31

12:                                               ; preds = %6
  call void @llvm.lifetime.start.p0(i64 8, ptr %4) #4
  %13 = call noundef nonnull align 8 dereferenceable(25) ptr @_ZN34btDeformableMultiBodyDynamicsWorld16getSoftBodyArrayEv(ptr noundef nonnull align 8 dereferenceable(1056) %5)
  %14 = load i32, ptr %3, align 4, !tbaa !9
  %15 = call noundef nonnull align 8 dereferenceable(8) ptr @_ZN20btAlignedObjectArrayIP10btSoftBodyEixEi(ptr noundef nonnull align 8 dereferenceable(25) %13, i32 noundef %14)
  %16 = load ptr, ptr %15, align 8, !tbaa !215
  store ptr %16, ptr %4, align 8, !tbaa !215
  %17 = load ptr, ptr %4, align 8, !tbaa !215
  %18 = load ptr, ptr %5, align 8, !tbaa !51
  %19 = getelementptr inbounds ptr, ptr %18, i64 5
  %20 = load ptr, ptr %19, align 8
  %21 = call noundef ptr %20(ptr noundef nonnull align 8 dereferenceable(121) %5)
  call void @_ZN17btSoftBodyHelpers9DrawFrameEP10btSoftBodyP12btIDebugDraw(ptr noundef %17, ptr noundef %21)
  %22 = load ptr, ptr %4, align 8, !tbaa !215
  %23 = load ptr, ptr %5, align 8, !tbaa !51
  %24 = getelementptr inbounds ptr, ptr %23, i64 5
  %25 = load ptr, ptr %24, align 8
  %26 = call noundef ptr %25(ptr noundef nonnull align 8 dereferenceable(121) %5)
  %27 = call noundef i32 @_ZNK34btDeformableMultiBodyDynamicsWorld12getDrawFlagsEv(ptr noundef nonnull align 8 dereferenceable(1056) %5)
  call void @_ZN17btSoftBodyHelpers4DrawEP10btSoftBodyP12btIDebugDrawi(ptr noundef %22, ptr noundef %26, i32 noundef %27)
  call void @llvm.lifetime.end.p0(i64 8, ptr %4) #4
  br label %28

28:                                               ; preds = %12
  %29 = load i32, ptr %3, align 4, !tbaa !9
  %30 = add nsw i32 %29, 1
  store i32 %30, ptr %3, align 4, !tbaa !9
  br label %6, !llvm.loop !470

31:                                               ; preds = %11
  ret void
}