; Function Attrs: mustprogress uwtable
define dso_local void @_ZN34btDeformableMultiBodyDynamicsWorld14debugDrawWorldEv(ptr noundef nonnull align 8 dereferenceable(1056) %0) unnamed_addr #4 align 2 {
  tail call void @_ZN24btMultiBodyDynamicsWorld14debugDrawWorldEv(ptr noundef nonnull align 8 dereferenceable(848) %0)
  %2 = getelementptr inbounds nuw i8, ptr %0, i64 860
  %3 = load i32, ptr %2, align 4, !tbaa !142
  %4 = icmp sgt i32 %3, 0
  br i1 %4, label %.lr.ph, label %._crit_edge

.lr.ph:                                           ; preds = %1
  %5 = getelementptr inbounds nuw i8, ptr %0, i64 872
  %6 = getelementptr inbounds nuw i8, ptr %0, i64 888
  br label %7

._crit_edge:                                      ; preds = %7, %1
  ret void

7:                                                ; preds = %.lr.ph, %7
  %indvars.iv = phi i64 [ 0, %.lr.ph ], [ %indvars.iv.next, %7 ]
  %8 = load ptr, ptr %5, align 8, !tbaa !141
  %9 = getelementptr inbounds nuw ptr, ptr %8, i64 %indvars.iv
  %10 = load ptr, ptr %9, align 8, !tbaa !232
  %11 = load ptr, ptr %0, align 8, !tbaa !50
  %12 = getelementptr inbounds nuw i8, ptr %11, i64 40
  %13 = load ptr, ptr %12, align 8
  %14 = tail call noundef ptr %13(ptr noundef nonnull align 8 dereferenceable(121) %0)
  tail call void @_ZN17btSoftBodyHelpers9DrawFrameEP10btSoftBodyP12btIDebugDraw(ptr noundef %10, ptr noundef %14)
  %15 = load ptr, ptr %0, align 8, !tbaa !50
  %16 = getelementptr inbounds nuw i8, ptr %15, i64 40
  %17 = load ptr, ptr %16, align 8
  %18 = tail call noundef ptr %17(ptr noundef nonnull align 8 dereferenceable(121) %0)
  %19 = load i32, ptr %6, align 8, !tbaa !153
  tail call void @_ZN17btSoftBodyHelpers4DrawEP10btSoftBodyP12btIDebugDrawi(ptr noundef %10, ptr noundef %18, i32 noundef %19)
  %indvars.iv.next = add nuw nsw i64 %indvars.iv, 1
  %20 = load i32, ptr %2, align 4, !tbaa !142
  %21 = sext i32 %20 to i64
  %22 = icmp slt i64 %indvars.iv.next, %21
  br i1 %22, label %7, label %._crit_edge, !llvm.loop !433
}